; ModuleID = 'lookup_mix.3a1fbbbh-cgu.0'
source_filename = "lookup_mix.3a1fbbbh-cgu.0"
target datalayout = "e-m:o-i64:64-f80:128-n8:16:32:64-S128"
target triple = "x86_64-apple-darwin"

%"unwind::libunwind::_Unwind_Exception" = type { [0 x i64], i64, [0 x i64], void (i32, %"unwind::libunwind::_Unwind_Exception"*)*, [0 x i64], [6 x i64], [0 x i64] }
%"unwind::libunwind::_Unwind_Context" = type { [0 x i8] }

@0 = private unnamed_addr constant <{ [2048 x i8] }> <{ [2048 x i8] c"\00\00\00\00\00\00\00\00\00\00\00\00\00\00\00\00\00\00\00\00\00\00\00\00\00\00\00\00\00\00\00\00\00\00\00\00\00\00\00\00\00\00\00\00\00\00\00\00\00\00\00\00\00\00\00\00\00\00\00\00\00\00\00\00\00\00\00\00\00\00\00\00\00\00\00\00\00\00\00\00\00\00\00\00\00\00\00\00\00\00\00\00\00\00\00\00\00\00\00\00\00\00\00\00\00\00\00\00\00\00\00\00\00\00\00\00\00\00\00\00\00\00\00\00\00\00\00\00\00\00\00\00\00\00\00\00\00\00\00\00\00\00\00\00\00\00\00\00\00\00\00\00\00\00\00\00\00\00\00\00\00\00\00\00\00\00\00\00\00\00\00\00\00\00\00\00\00\00\00\00\00\00\00\00\00\00\00\00\00\00\00\00\00\00\00\00\00\00\00\00\00\00\00\00\00\00\00\00\00\00\00\00\00\00\00\00\00\00\00\00\00\00\00\00\00\00\00\00\00\00\00\00\00\00\00\00\00\00\00\00\00\00\00\00\00\00\00\00\00\00\00\00\00\00\00\00\00\00\00\00\00\00\00\00\00\00\00\00\00\00\00\00\00\00\00\00\00\00\00\00\00\00\00\00\00\00\00\00\00\00\00\00\00\00\00\00\00\00\00\00\00\00\00\00\00\00\00\00\00\00\00\00\00\00\00\00\00\00\00\00\00\00\00\00\00\00\00\00\00\00\00\00\00\00\00\00\00\00\00\00\00\00\00\00\00\00\00\00\00\00\00\00\00\00\00\00\00\00\00\00\00\00\00\00\00\00\00\00\00\00\00\00\00\00\00\00\00\00\00\00\00\00\00\00\00\00\00\00\00\00\00\00\00\00\00\00\00\00\00\00\00\00\00\00\00\00\00\00\00\00\00\00\00\00\00\00\00\00\00\00\00\00\00\00\00\00\00\00\00\00\00\00\00\00\00\00\00\00\00\00\00\00\00\00\00\00\00\00\00\00\00\00\00\00\00\00\00\00\00\00\00\00\00\00\00\00\00\00\00\00\00\00\00\00\00\00\00\00\00\00\00\00\00\00\00\00\00\00\00\00\00\00\00\00\00\00\00\00\00\00\00\00\00\00\00\00\00\00\00\00\00\00\01\00\00\00\00\00\00\00\02\00\00\00\00\00\00\00\03\00\00\00\00\00\00\00\04\00\00\00\00\00\00\00\00\00\00\00\00\00\00\00\00\00\00\00\00\00\00\00\00\00\00\00\00\00\00\00\00\00\00\00\00\00\00\00\00\00\00\00\00\00\00\00\00\00\00\00\00\00\00\00\00\00\00\00\00\00\00\00\00\00\00\00\00\00\00\00\00\00\00\00\00\00\00\00\00\00\00\00\00\00\00\00\00\00\00\00\00\00\00\00\00\00\00\00\00\00\00\00\00\00\00\00\00\00\00\00\00\00\00\00\00\00\00\00\00\00\00\00\00\00\00\00\00\00\00\00\00\00\00\00\00\00\00\00\00\00\00\00\00\00\00\00\00\00\00\00\00\00\00\00\00\00\00\00\00\00\00\00\00\00\00\00\00\00\00\00\00\00\00\00\00\00\00\00\00\00\00\00\00\00\00\00\00\00\00\00\00\00\00\00\00\00\00\00\00\00\00\00\00\00\00\00\00\00\00\00\00\00\00\00\00\00\00\00\00\00\00\00\00\00\00\00\00\00\00\00\00\00\00\00\00\00\00\00\00\00\00\00\00\00\00\00\00\00\00\00\00\00\00\00\00\00\00\00\00\00\00\00\00\00\00\00\00\00\00\00\00\00\00\00\00\00\00\00\00\00\00\00\00\00\00\00\00\00\00\00\00\00\00\00\00\00\00\00\00\00\00\00\00\00\00\00\00\00\00\00\00\00\00\00\00\00\00\00\00\00\00\00\00\00\00\00\00\00\00\00\00\00\00\00\00\00\00\00\00\00\00\00\00\00\00\00\00\00\00\00\00\00\00\00\00\00\00\00\00\00\00\00\00\00\00\00\00\00\00\00\00\00\00\00\00\00\00\00\00\00\00\00\00\00\00\00\00\00\00\00\00\00\00\00\00\00\00\00\00\00\00\00\00\00\00\00\00\00\00\00\00\00\00\00\00\00\00\00\00\00\00\00\00\00\00\00\00\00\00\00\00\00\00\00\00\00\00\00\00\00\00\00\00\00\00\00\00\00\00\00\00\00\00\00\00\00\00\00\00\00\00\00\00\00\00\00\00\00\00\00\00\00\00\00\00\00\00\00\00\00\00\00\00\00\00\00\00\00\00\00\00\00\00\00\00\00\00\00\00\00\00\00\00\00\00\00\00\00\00\00\00\00\00\00\00\00\00\00\00\00\00\00\00\00\00\00\00\00\00\00\00\00\00\00\00\00\00\00\00\00\00\00\00\00\00\00\00\00\00\00\00\00\00\00\00\00\00\00\00\00\00\00\00\00\00\00\00\00\00\00\00\00\00\00\00\00\00\00\00\00\00\00\00\00\00\00\00\00\00\00\00\00\00\00\00\00\00\00\00\00\00\00\00\00\00\00\00\00\00\00\00\00\00\00\00\00\00\00\00\00\00\00\00\00\00\00\00\00\00\00\00\00\00\00\00\00\00\00\00\00\00\00\00\00\00\00\00\00\00\00\00\00\00\00\00\00\00\00\00\00\00\00\00\00\00\00\00\00\00\00\00\00\00\00\00\00\00\00\00\00\00\00\00\00\00\00\00\00\00\00\00\00\00\00\00\00\00\00\00\00\00\00\00\00\00\00\00\00\00\00\00\00\00\00\00\00\00\00\00\00\00\00\00\00\00\00\00\00\00\00\00\00\00\00\00\00\00\00\00\00\00\00\00\00\00\00\00\00\00\00\00\00\00\00\00\00\00\00\00\00\00\00\00\00\00\00\00\00\00\00\00\00\00\00\00\00\00\00\00\00\00\00\00\00\00\00\00\00\00\00\00\00\00\00\00\00\00\00\00\00\00\00\00\00\00\00\00\00\00\00\00\00\00\00\00\00\00\00\00\00\00\00\00\00\00\00\00\00\00\00\00\00\00\00\00\00\00\00\00\00\00\00\00\00\00\00\00\00\00\00\00\00\00\00\00\00\00\00\00\00\00\00\00\00\00\00\00\00\00\00\00\00\00\00\00\00\00\00\00\00\00\00\00\00\00\00\00\00\00\00\00\00\00\00\00\00\00\00\00\00\00\00\00\00\00\00\00\00\00\00\00\00\00\00\00\00\00\00\00\00\00\00\00\00\00\00\00\00\00\00\00\00\00\00\00\00\00\00\00\00\00\00\00\00\00\00\00\00\00\00\00\00\00\00\00\00\00\00\00\00\00\00\00\00\00\00\00\00\00\00\00\00\00\00\00\00\00\00\00\00\00\00\00\00\00\00\00\00\00\00\00\00\00\00\00\00\00\00\00\00\00\00\00\00\00\00\00\00\00\00\00\00\00\00\00\00\00\00\00\00\00\00\00\00\00\00\00\00\00\00\00\00\00\00\00\00\00\00\00\00\00\00\00\00\00\00\00\00\00\00\00\00\00\00\00\00\00\00\00\00\00\00\00\00\00\00\00\00\00\00\00\00\00\00\00\00\00\00\00\00\00\00\00\00\00\00\00\00\00\00\00\00\00\00\00\00\00\00\00\00\00\00\00\00\00\00\00\00\00\00\00\00\00\00\00\00\00\00\00\00\00\00\00\00\00\00\00\00\00\00\00\00\00\00\00\00\00\00\00\00\00\00\00\00\00\00\00\00\00\00\00\00\00\00\00\00\00\00\00\00\00\00\00\00\00\00\00\00\00\00\00\00\00\00\00\00\00\00\00\00\00\00\00\00\00\00\00\00\00\00\00\00\00\00\00\00\00\00\00\00\00\00\00\00\00\00\00\00\00\00\00\00\00\00\00\00\00\00\00\00\00\00\00\00\00\00\00\00\00\00\00\00\00\00\00\00\00\00\00\00\00\00\00\00\00\00\00\00\00\00\00\00\00\00\00\00\00\00\00\00\00\00\00\00\00\00\00\00\00\00\00\00\00\00\00\00\00\00\00\00\00\00\00\00\00\00\00\00\00\00\00\00\00\00\00\00\00\00\00\00\00\00\00\00\00\00\00\00\00\00\00\00\00\00\00\00\00\00\00\00\00\00\00\00\00\00\00\00\00\00\00\00\00\00\00\00\00\00\00\00\00\00\00\00\00\00\00\00\00\00\00\00\00\00\00\00\00\00\00\00\00\00\00\00\00\00\00\00\00\00\00\00\00\00\00\00\00\00\00\00\00\00\00\00\00\00\00\00\00\00\00\00\00\00\00\00\00\00\00\00\00\00\00\00\00\00\00\00\00\00\00\00\00\00\00\00\00\00\00\00\00\00\00\00\00\00\00\00\00\00\00\00\00\00\00\00\00\00\00\00\00\00\00\00\00\00\00\00\00\00\00\00\00\00\00\00\00\00\00\00\00\00\00\00\00\00\00\00\00\00\00\00\00\00\00\00\00\00\00\00\00\00\00\00\00\00\00\00\00\00\00\00\00\00\00\00\00\00\00\00\00\00\00\00\00\00\00\00\00\00" }>, align 8

; lookup_mix::lookup_mix_4
; Function Attrs: nounwind readonly uwtable
define i64 @_ZN10lookup_mix12lookup_mix_417ha2e395a335f18ab8E([0 x i8]* noalias nonnull readonly %s.0, i64 %s.1) unnamed_addr #0 personality i32 (i32, i32, i64, %"unwind::libunwind::_Unwind_Exception"*, %"unwind::libunwind::_Unwind_Context"*)* @rust_eh_personality {
start:
  %0 = getelementptr inbounds [0 x i8], [0 x i8]* %s.0, i64 0, i64 %s.1
  %1 = ptrtoint [0 x i8]* %s.0 to i64
  %2 = ptrtoint i8* %0 to i64
  br label %bb6

bb4:                                              ; preds = %bb14
  ret i64 %out.1.lcssa

bb6:                                              ; preds = %bb14, %start
  %out.060 = phi i64 [ 0, %start ], [ %out.1.lcssa, %bb14 ]
  %iter.sroa.0.059 = phi i64 [ 0, %start ], [ %3, %bb14 ]
  %3 = add nuw nsw i64 %iter.sroa.0.059, 1
  br label %bb1.i

bb1.i:                                            ; preds = %bb6, %bb15
  %out.158 = phi i64 [ %out.060, %bb6 ], [ %20, %bb15 ]
  %iter2.sroa.14.057 = phi i64 [ 32, %bb6 ], [ %4, %bb15 ]
  %iter2.sroa.11.056 = phi i64 [ %iter.sroa.0.059, %bb6 ], [ 0, %bb15 ]
  %iter2.sroa.0.055 = phi i64 [ %1, %bb6 ], [ %iter2.sroa.0.1, %bb15 ]
  %4 = add nsw i64 %iter2.sroa.14.057, -1
  %5 = icmp eq i64 %iter2.sroa.11.056, 0
  br i1 %5, label %bb1.i.i, label %bb2.i.i

bb1.i.i:                                          ; preds = %bb1.i
  %6 = inttoptr i64 %iter2.sroa.0.055 to i8*
  %7 = icmp eq i8* %0, %6
  br i1 %7, label %bb14, label %bb9.i.i.i

bb9.i.i.i:                                        ; preds = %bb1.i.i
  %8 = getelementptr inbounds i8, i8* %6, i64 1
  br label %"_ZN76_$LT$core..iter..Take$LT$I$GT$$u20$as$u20$core..iter..iterator..Iterator$GT$4next17h092dd8fb7c822066E.exit"

bb2.i.i:                                          ; preds = %bb1.i
  %9 = sub i64 %2, %iter2.sroa.0.055
  %10 = icmp ugt i64 %9, %iter2.sroa.11.056
  %11 = inttoptr i64 %iter2.sroa.0.055 to i8*
  br i1 %10, label %bb8.i.i.i, label %bb14

bb8.i.i.i:                                        ; preds = %bb2.i.i
  %12 = getelementptr inbounds i8, i8* %11, i64 %iter2.sroa.11.056
  %13 = add nuw nsw i64 %iter2.sroa.11.056, 1
  %14 = getelementptr inbounds i8, i8* %11, i64 %13
  br label %"_ZN76_$LT$core..iter..Take$LT$I$GT$$u20$as$u20$core..iter..iterator..Iterator$GT$4next17h092dd8fb7c822066E.exit"

"_ZN76_$LT$core..iter..Take$LT$I$GT$$u20$as$u20$core..iter..iterator..Iterator$GT$4next17h092dd8fb7c822066E.exit": ; preds = %bb9.i.i.i, %bb8.i.i.i
  %iter2.sroa.0.1.in = phi i8* [ %8, %bb9.i.i.i ], [ %14, %bb8.i.i.i ]
  %_0.0.i = phi i8* [ %6, %bb9.i.i.i ], [ %12, %bb8.i.i.i ]
  %15 = icmp eq i8* %_0.0.i, null
  br i1 %15, label %bb14, label %bb15

bb14:                                             ; preds = %bb2.i.i, %bb1.i.i, %bb15, %"_ZN76_$LT$core..iter..Take$LT$I$GT$$u20$as$u20$core..iter..iterator..Iterator$GT$4next17h092dd8fb7c822066E.exit"
  %out.1.lcssa = phi i64 [ %out.158, %bb2.i.i ], [ %out.158, %bb1.i.i ], [ %20, %bb15 ], [ %out.158, %"_ZN76_$LT$core..iter..Take$LT$I$GT$$u20$as$u20$core..iter..iterator..Iterator$GT$4next17h092dd8fb7c822066E.exit" ]
  %exitcond = icmp eq i64 %3, 1000
  br i1 %exitcond, label %bb4, label %bb6

bb15:                                             ; preds = %"_ZN76_$LT$core..iter..Take$LT$I$GT$$u20$as$u20$core..iter..iterator..Iterator$GT$4next17h092dd8fb7c822066E.exit"
  %iter2.sroa.0.1 = ptrtoint i8* %iter2.sroa.0.1.in to i64
  %16 = load i8, i8* %_0.0.i, align 1
  %17 = zext i8 %16 to i64
  %18 = getelementptr inbounds [256 x i64], [256 x i64]* bitcast (<{ [2048 x i8] }>* @0 to [256 x i64]*), i64 0, i64 %17
  %19 = load i64, i64* %18, align 8
  %20 = xor i64 %19, %out.158
  %21 = icmp eq i64 %4, 0
  br i1 %21, label %bb14, label %bb1.i
}

; Function Attrs: uwtable
declare i32 @rust_eh_personality(i32, i32, i64, %"unwind::libunwind::_Unwind_Exception"*, %"unwind::libunwind::_Unwind_Context"*) unnamed_addr #1

attributes #0 = { nounwind readonly uwtable "no-frame-pointer-elim"="true" "probe-stack"="__rust_probestack" }
attributes #1 = { uwtable "no-frame-pointer-elim"="true" "probe-stack"="__rust_probestack" "target-cpu"="core2" }
